target datalayout = "e-m:e-p270:32:32-p271:32:32-p272:64:64-i64:64-i128:128-f80:128-n8:16:32:64-S128"
target triple = "x86_64-pc-linux-gnu"

%struct.preference = type { ptr, ptr, ptr, i32, i32, i32, %union.anon, %union.anon.0, %union.anon.1, %union.anon.2, %struct.pref_custom_cbs, ptr, ptr }
%union.anon = type { ptr }
%union.anon.0 = type { ptr }
%union.anon.1 = type { ptr }
%union.anon.2 = type { %struct.anon }
%struct.anon = type { ptr, i8 }
%struct.pref_custom_cbs = type { ptr, ptr, ptr, ptr, ptr, ptr, ptr }

; Function Attrs: nounwind null_pointer_is_valid sspstrong uwtable
define i32 @prefs_get_effect_flags(ptr noundef %0) #0 {
  %2 = alloca i32, align 4
  %3 = alloca ptr, align 8
  store ptr %0, ptr %3, align 8
  %4 = load ptr, ptr %3, align 8
  %5 = icmp eq ptr %4, null
  br i1 %5, label %6, label %7

6:                                                ; preds = %1
  store i32 0, ptr %2, align 4
  br label %11

7:                                                ; preds = %1
  %8 = load ptr, ptr %3, align 8
  %9 = getelementptr inbounds nuw %struct.preference, ptr %8, i32 0, i32 5
  %10 = load i32, ptr %9, align 8
  store i32 %10, ptr %2, align 4
  br label %11

11:                                               ; preds = %7, %6
  %12 = load i32, ptr %2, align 4
  ret i32 %12
}

; Function Attrs: null_pointer_is_valid sspstrong uwtable
define i32 @prefs_set_stashed_range_value(ptr noundef %0, ptr noundef %1) #1 {
  %3 = alloca i32, align 4
  %4 = alloca ptr, align 8
  %5 = alloca ptr, align 8
  %6 = alloca ptr, align 8
  %7 = alloca i32, align 4
  store ptr %0, ptr %4, align 8
  store ptr %1, ptr %5, align 8
  call void @llvm.lifetime.start.p0(i64 8, ptr %6) #17
  %8 = call ptr @wmem_epan_scope()
  %9 = load ptr, ptr %5, align 8
  %10 = load ptr, ptr %4, align 8
  %11 = getelementptr inbounds nuw %struct.preference, ptr %10, i32 0, i32 9
  %12 = load i32, ptr %11, align 8
  %13 = call i32 @range_convert_str_work(ptr noundef %8, ptr noundef %6, ptr noundef %9, i32 noundef %12, i1 noundef zeroext true)
  %14 = icmp ne i32 %13, 0
  br i1 %14, label %15, label %16

15:                                               ; preds = %2
  store i32 0, ptr %3, align 4
  store i32 1, ptr %7, align 4
  br label %36

16:                                               ; preds = %2
  %17 = load ptr, ptr %4, align 8
  %18 = getelementptr inbounds nuw %struct.preference, ptr %17, i32 0, i32 7
  %19 = load ptr, ptr %18, align 8
  %20 = load ptr, ptr %6, align 8
  %21 = call zeroext i1 @ranges_are_equal(ptr noundef %19, ptr noundef %20)
  br i1 %21, label %30, label %22

22:                                               ; preds = %16
  %23 = call ptr @wmem_epan_scope()
  %24 = load ptr, ptr %4, align 8
  %25 = getelementptr inbounds nuw %struct.preference, ptr %24, i32 0, i32 7
  %26 = load ptr, ptr %25, align 8
  call void @wmem_free(ptr noundef %23, ptr noundef %26)
  %27 = load ptr, ptr %6, align 8
  %28 = load ptr, ptr %4, align 8
  %29 = getelementptr inbounds nuw %struct.preference, ptr %28, i32 0, i32 7
  store ptr %27, ptr %29, align 8
  br label %33

30:                                               ; preds = %16
  %31 = call ptr @wmem_epan_scope()
  %32 = load ptr, ptr %6, align 8
  call void @wmem_free(ptr noundef %31, ptr noundef %32)
  br label %33

33:                                               ; preds = %30, %22
  %34 = load ptr, ptr %4, align 8
  %35 = call i32 @prefs_get_effect_flags(ptr noundef %34)
  store i32 %35, ptr %3, align 4
  store i32 1, ptr %7, align 4
  br label %36

36:                                               ; preds = %33, %15
  call void @llvm.lifetime.end.p0(i64 8, ptr %6) #17
  %37 = load i32, ptr %3, align 4
  ret i32 %37
}