; Function Attrs: null_pointer_is_valid sspstrong uwtable
define i32 @prefs_set_stashed_range_value(ptr noundef captures(address_is_null) %0, ptr noundef %1) local_unnamed_addr #1 {
  %3 = alloca ptr, align 8
  call void @llvm.lifetime.start.p0(i64 8, ptr nonnull %3) #25
  %4 = tail call ptr @wmem_epan_scope()
  %5 = getelementptr inbounds nuw i8, ptr %0, i64 64
  %6 = load i32, ptr %5, align 8
  %7 = call i32 @range_convert_str_work(ptr noundef %4, ptr noundef nonnull %3, ptr noundef %1, i32 noundef %6, i1 noundef zeroext true)
  %.not = icmp eq i32 %7, 0
  br i1 %.not, label %8, label %prefs_get_effect_flags.exit

8:                                                ; preds = %2
  %9 = getelementptr inbounds nuw i8, ptr %0, i64 48
  %10 = load ptr, ptr %9, align 8
  %11 = load ptr, ptr %3, align 8
  %12 = call zeroext i1 @ranges_are_equal(ptr noundef %10, ptr noundef %11)
  %13 = call ptr @wmem_epan_scope()
  br i1 %12, label %17, label %14

14:                                               ; preds = %8
  %15 = load ptr, ptr %9, align 8
  call void @wmem_free(ptr noundef %13, ptr noundef %15)
  %16 = load ptr, ptr %3, align 8
  store ptr %16, ptr %9, align 8
  br label %19

17:                                               ; preds = %8
  %18 = load ptr, ptr %3, align 8
  call void @wmem_free(ptr noundef %13, ptr noundef %18)
  br label %19

19:                                               ; preds = %17, %14
  %20 = icmp eq ptr %0, null
  br i1 %20, label %prefs_get_effect_flags.exit, label %21

21:                                               ; preds = %19
  %22 = getelementptr inbounds nuw i8, ptr %0, i64 32
  %23 = load i32, ptr %22, align 8
  br label %prefs_get_effect_flags.exit

prefs_get_effect_flags.exit:                      ; preds = %21, %19, %2
  %.0 = phi i32 [ 0, %2 ], [ %23, %21 ], [ 0, %19 ]
  call void @llvm.lifetime.end.p0(i64 8, ptr nonnull %3) #25
  ret i32 %.0
}